; Function Attrs: mustprogress uwtable
define noundef zeroext i1 @_ZNK6casadi6Nlpsol4is_aERKNSt7__cxx1112basic_stringIcSt11char_traitsIcESaIcEEEb(ptr noundef nonnull align 8 dereferenceable(1928) %0, ptr noundef nonnull align 8 dereferenceable(32) %1, i1 noundef zeroext %2) unnamed_addr #3 align 2 {
  %4 = tail call noundef i32 @_ZNKSt7__cxx1112basic_stringIcSt11char_traitsIcESaIcEE7compareEPKc(ptr noundef nonnull align 8 dereferenceable(32) %1, ptr noundef nonnull @.str.25) #26
  %5 = icmp eq i32 %4, 0
  %.not = xor i1 %2, true
  %brmerge = or i1 %5, %.not
  br i1 %brmerge, label %8, label %6

6:                                                ; preds = %3
  %7 = tail call noundef zeroext i1 @_ZNK6casadi16FunctionInternal4is_aERKNSt7__cxx1112basic_stringIcSt11char_traitsIcESaIcEEEb(ptr noundef nonnull align 8 dereferenceable(1304) %0, ptr noundef nonnull align 8 dereferenceable(32) %1, i1 noundef zeroext true)
  br label %8

8:                                                ; preds = %3, %6
  %9 = phi i1 [ %5, %3 ], [ %7, %6 ]
  ret i1 %9
}